(lp0
(iBirthdayBook
Contact
p1
(dp2
S'phone'
p3
S'aaaaaas'
p4
sS'birthday'
p5
S'32'
p6
sS'name'
p7
S'asda'
p8
sba(iBirthdayBook
Contact
p9
(dp10
g3
S'aaaaaas'
p11
sg5
S'32'
p12
sg7
S'asda'
p13
sba(iBirthdayBook
Contact
p14
(dp15
g3
S'aaaaaas'
p16
sg5
S'32'
p17
sg7
S'asda'
p18
sba(iBirthdayBook
Contact
p19
(dp20
g3
S'aaaaaas'
p21
sg5
S'32'
p22
sg7
S'asda'
p23
sba(iBirthdayBook
Contact
p24
(dp25
g3
S''
p26
sg5
g26
sg7
g26
sba(iBirthdayBook
Contact
p27
(dp28
g3
S'2'
p29
sg5
S'3'
p30
sg7
S'1'
p31
sba(iBirthdayBook
Contact
p32
(dp33
g3
S'4'
p34
sg5
S'5'
p35
sg7
S'3'
p36
sba(iBirthdayBook
Contact
p37
(dp38
g3
g26
sg5
g26
sg7
g26
sba(iBirthdayBook
Contact
p39
(dp40
g3
S'3'
p41
sg5
S'123123'
p42
sg7
S'12'
p43
sba(iBirthdayBook
Contact
p44
(dp45
g3
S'qwe'
p46
sg5
S'qwe'
p47
sg7
S'qew'
p48
sba(iBirthdayBook
Contact
p49
(dp50
g3
S'as'
p51
sg5
S'121221'
p52
sg7
S'asd'
p53
sba.