(lp0
(iBirthdayBook
Contact
p1
(dp2
S'phone'
p3
S'2'
p4
sS'birthday'
p5
S'3'
p6
sS'name'
p7
S'1'
p8
sba(iBirthdayBook
Contact
p9
(dp10
g3
S'4'
p11
sg5
S'5'
p12
sg7
S'3'
p13
sba(iBirthdayBook
Contact
p14
(dp15
g3
S'3'
p16
sg5
S'123123'
p17
sg7
S'12'
p18
sba(iBirthdayBook
Contact
p19
(dp20
g3
S'as'
p21
sg5
S'121221'
p22
sg7
S'asd'
p23
sba(iBirthdayBook
Contact
p24
(dp25
g3
S'123'
p26
sg5
S'121298'
p27
sg7
S'Das'
p28
sba(iBirthdayBook
Contact
p29
(dp30
g3
S'21'
p31
sg5
S'12'
p32
sg7
S'21'
p33
sba.