(lp0
ccopy_reg
_reconstructor
p1
(cBirthdayBook
Contact
p2
c__builtin__
object
p3
Ntp4
Rp5
(dp6
S'phone'
p7
S'123123'
p8
sS'birthday'
p9
S'1992-04-13'
p10
sS'name'
p11
S'A'
p12
sbag1
(g2
g3
Ntp13
Rp14
(dp15
g7
S'12312'
p16
sg9
S'1992-12-03'
p17
sg11
S'B'
p18
sbag1
(g2
g3
Ntp19
Rp20
(dp21
g7
S'12312'
p22
sg9
S'1992-12-02'
p23
sg11
g18
sba.