(lp0
(iBirthdayBook
Contact
p1
(dp2
S'phone'
p3
S'aaaaaas'
p4
sS'birthday'
p5
S'32'
p6
sS'name'
p7
S'asda'
p8
sba(iBirthdayBook
Contact
p9
(dp10
g3
S'aaaaaas'
p11
sg5
S'32'
p12
sg7
S'asda'
p13
sba(iBirthdayBook
Contact
p14
(dp15
g3
S'aaaaaas'
p16
sg5
S'32'
p17
sg7
S'asda'
p18
sba(iBirthdayBook
Contact
p19
(dp20
g3
S'aaaaaas'
p21
sg5
S'32'
p22
sg7
S'asda'
p23
sba(iBirthdayBook
Contact
p24
(dp25
g3
S'2'
p26
sg5
S'3'
p27
sg7
S'1'
p28
sba(iBirthdayBook
Contact
p29
(dp30
g3
S'4'
p31
sg5
S'5'
p32
sg7
S'3'
p33
sba(iBirthdayBook
Contact
p34
(dp35
g3
S'3'
p36
sg5
S'123123'
p37
sg7
S'12'
p38
sba(iBirthdayBook
Contact
p39
(dp40
g3
S'qwe'
p41
sg5
S'qwe'
p42
sg7
S'qew'
p43
sba(iBirthdayBook
Contact
p44
(dp45
g3
S'as'
p46
sg5
S'121221'
p47
sg7
S'asd'
p48
sba(iBirthdayBook
Contact
p49
(dp50
g3
S'123'
p51
sg5
S'121298'
p52
sg7
S'Das'
p53
sba(iBirthdayBook
Contact
p54
(dp55
g3
S's'
p56
sg5
S'Y'
p57
sg7
S'X'
p58
sba(iBirthdayBook
Contact
p59
(dp60
g3
S'21'
p61
sg5
S'12'
p62
sg7
S'21'
p63
sba.